target datalayout = "e-m:e-p270:32:32-p271:32:32-p272:64:64-i64:64-i128:128-f80:128-n8:16:32:64-S128"
target triple = "x86_64-pc-linux-gnu"

%struct.AVFilterContext = type { ptr, ptr, ptr, ptr, ptr, i32, ptr, ptr, i32, ptr, ptr, i32, i32, ptr, ptr, ptr, ptr, i32, ptr, i32, i32 }
%struct.ADerivativeContext = type { ptr, ptr, ptr }
%struct.AVFilterLink = type { ptr, ptr, ptr, ptr, i32, i32, i32, i32, %struct.AVRational, i32, i32, i32, %struct.AVChannelLayout, %struct.AVRational, ptr, i32, %struct.AVFilterFormatsConfig, %struct.AVFilterFormatsConfig }
%struct.AVChannelLayout = type { i32, i32, %union.anon.1, ptr }
%union.anon.1 = type { i64 }
%struct.AVRational = type { i32, i32 }
%struct.AVFilterFormatsConfig = type { ptr, ptr, ptr, ptr, ptr }
%struct.AVFilter = type { ptr, ptr, ptr, ptr, ptr, i32 }

@.str.2 = private unnamed_addr constant [10 x i8] c"aintegral\00", align 1

; Function Attrs: nounwind uwtable
define internal i32 @config_input(ptr noundef %0) #1 {
  %2 = alloca i32, align 4
  %3 = alloca ptr, align 8
  %4 = alloca ptr, align 8
  %5 = alloca ptr, align 8
  %6 = alloca i32, align 4
  store ptr %0, ptr %3, align 8, !tbaa !24
  call void @llvm.lifetime.start.p0(i64 8, ptr %4) #5
  %7 = load ptr, ptr %3, align 8, !tbaa !24
  %8 = getelementptr inbounds nuw %struct.AVFilterLink, ptr %7, i32 0, i32 2
  %9 = load ptr, ptr %8, align 8, !tbaa !28
  store ptr %9, ptr %4, align 8, !tbaa !4
  call void @llvm.lifetime.start.p0(i64 8, ptr %5) #5
  %10 = load ptr, ptr %4, align 8, !tbaa !4
  %11 = getelementptr inbounds nuw %struct.AVFilterContext, ptr %10, i32 0, i32 9
  %12 = load ptr, ptr %11, align 8, !tbaa !9
  store ptr %12, ptr %5, align 8, !tbaa !22
  %13 = load ptr, ptr %3, align 8, !tbaa !24
  %14 = getelementptr inbounds nuw %struct.AVFilterLink, ptr %13, i32 0, i32 5
  %15 = load i32, ptr %14, align 4, !tbaa !50
  switch i32 %15, label %28 [
    i32 8, label %16
    i32 9, label %19
    i32 7, label %22
    i32 6, label %25
  ]

16:                                               ; preds = %1
  %17 = load ptr, ptr %5, align 8, !tbaa !22
  %18 = getelementptr inbounds nuw %struct.ADerivativeContext, ptr %17, i32 0, i32 2
  store ptr @aderivative_fltp, ptr %18, align 8, !tbaa !49
  br label %28

19:                                               ; preds = %1
  %20 = load ptr, ptr %5, align 8, !tbaa !22
  %21 = getelementptr inbounds nuw %struct.ADerivativeContext, ptr %20, i32 0, i32 2
  store ptr @aderivative_dblp, ptr %21, align 8, !tbaa !49
  br label %28

22:                                               ; preds = %1
  %23 = load ptr, ptr %5, align 8, !tbaa !22
  %24 = getelementptr inbounds nuw %struct.ADerivativeContext, ptr %23, i32 0, i32 2
  store ptr @aderivative_s32p, ptr %24, align 8, !tbaa !49
  br label %28

25:                                               ; preds = %1
  %26 = load ptr, ptr %5, align 8, !tbaa !22
  %27 = getelementptr inbounds nuw %struct.ADerivativeContext, ptr %26, i32 0, i32 2
  store ptr @aderivative_s16p, ptr %27, align 8, !tbaa !49
  br label %28

28:                                               ; preds = %1, %25, %22, %19, %16
  %29 = load ptr, ptr %4, align 8, !tbaa !4
  %30 = getelementptr inbounds nuw %struct.AVFilterContext, ptr %29, i32 0, i32 1
  %31 = load ptr, ptr %30, align 8, !tbaa !51
  %32 = getelementptr inbounds nuw %struct.AVFilter, ptr %31, i32 0, i32 0
  %33 = load ptr, ptr %32, align 8, !tbaa !52
  %34 = call i32 @strcmp(ptr noundef %33, ptr noundef @.str.2) #6
  %35 = icmp ne i32 %34, 0
  br i1 %35, label %36, label %37

36:                                               ; preds = %28
  store i32 0, ptr %2, align 4
  store i32 1, ptr %6, align 4
  br label %48

37:                                               ; preds = %28
  %38 = load ptr, ptr %3, align 8, !tbaa !24
  %39 = getelementptr inbounds nuw %struct.AVFilterLink, ptr %38, i32 0, i32 5
  %40 = load i32, ptr %39, align 4, !tbaa !50
  switch i32 %40, label %47 [
    i32 8, label %41
    i32 9, label %44
  ]

41:                                               ; preds = %37
  %42 = load ptr, ptr %5, align 8, !tbaa !22
  %43 = getelementptr inbounds nuw %struct.ADerivativeContext, ptr %42, i32 0, i32 2
  store ptr @aintegral_fltp, ptr %43, align 8, !tbaa !49
  br label %47

44:                                               ; preds = %37
  %45 = load ptr, ptr %5, align 8, !tbaa !22
  %46 = getelementptr inbounds nuw %struct.ADerivativeContext, ptr %45, i32 0, i32 2
  store ptr @aintegral_dblp, ptr %46, align 8, !tbaa !49
  br label %47

47:                                               ; preds = %37, %44, %41
  store i32 0, ptr %2, align 4
  store i32 1, ptr %6, align 4
  br label %48

48:                                               ; preds = %47, %36
  call void @llvm.lifetime.end.p0(i64 8, ptr %5) #5
  call void @llvm.lifetime.end.p0(i64 8, ptr %4) #5
  %49 = load i32, ptr %2, align 4
  ret i32 %49
}