; Function Attrs: mustprogress nofree norecurse nounwind willreturn memory(readwrite, inaccessiblemem: none) uwtable
define internal noundef i32 @config_input(ptr noundef readonly captures(none) %0) #2 {
  %2 = getelementptr inbounds nuw i8, ptr %0, i64 16
  %3 = load ptr, ptr %2, align 8, !tbaa !22
  %4 = getelementptr inbounds nuw i8, ptr %3, i64 72
  %5 = load ptr, ptr %4, align 8, !tbaa !4
  %6 = getelementptr inbounds nuw i8, ptr %0, i64 36
  %7 = load i32, ptr %6, align 4, !tbaa !47
  %switch.tableidx = add i32 %7, -6
  %8 = icmp ult i32 %switch.tableidx, 4
  br i1 %8, label %switch.lookup, label %11

switch.lookup:                                    ; preds = %1
  %9 = zext nneg i32 %switch.tableidx to i64
  %switch.gep = getelementptr inbounds nuw [4 x ptr], ptr @switch.table.config_input, i64 0, i64 %9
  %switch.load = load ptr, ptr %switch.gep, align 8
  %10 = getelementptr inbounds nuw i8, ptr %5, i64 16
  store ptr %switch.load, ptr %10, align 8, !tbaa !46
  br label %11

11:                                               ; preds = %1, %switch.lookup
  %12 = getelementptr inbounds nuw i8, ptr %3, i64 8
  %13 = load ptr, ptr %12, align 8, !tbaa !48
  %14 = load ptr, ptr %13, align 8, !tbaa !49
  %15 = tail call i32 @strcmp(ptr noundef nonnull dereferenceable(1) %14, ptr noundef nonnull dereferenceable(10) @.str.2) #8
  %.not = icmp eq i32 %15, 0
  br i1 %.not, label %16, label %19

16:                                               ; preds = %11
  switch i32 %7, label %19 [
    i32 8, label %.sink.split11
    i32 9, label %17
  ]

17:                                               ; preds = %16
  br label %.sink.split11

.sink.split11:                                    ; preds = %16, %17
  %aintegral_fltp.sink = phi ptr [ @aintegral_dblp, %17 ], [ @aintegral_fltp, %16 ]
  %18 = getelementptr inbounds nuw i8, ptr %5, i64 16
  store ptr %aintegral_fltp.sink, ptr %18, align 8, !tbaa !46
  br label %19

19:                                               ; preds = %.sink.split11, %16, %11
  ret i32 0
}